; Function Attrs: nounwind uwtable
define dso_local range(i32 -30, 1) i32 @__archive_write_program_open(ptr noundef readonly captures(none) %0, ptr noundef %1, ptr noundef %2) local_unnamed_addr #0 {
  %4 = getelementptr inbounds nuw i8, ptr %1, i64 16
  %5 = load ptr, ptr %4, align 8
  %6 = icmp eq ptr %5, null
  br i1 %6, label %7, label %15

7:                                                ; preds = %3
  %8 = getelementptr inbounds nuw i8, ptr %1, i64 24
  store i64 65536, ptr %8, align 8
  %9 = getelementptr inbounds nuw i8, ptr %1, i64 32
  store i64 0, ptr %9, align 8
  %10 = tail call noalias dereferenceable_or_null(65536) ptr @malloc(i64 noundef 65536) #14
  store ptr %10, ptr %4, align 8
  %11 = icmp eq ptr %10, null
  br i1 %11, label %12, label %15

12:                                               ; preds = %7
  %13 = getelementptr inbounds nuw i8, ptr %0, i64 8
  %14 = load ptr, ptr %13, align 8
  tail call void (ptr, i32, ptr, ...) @archive_set_error(ptr noundef %14, i32 noundef 12, ptr noundef nonnull @.str.2) #11
  br label %22

15:                                               ; preds = %7, %3
  %16 = getelementptr inbounds nuw i8, ptr %1, i64 4
  %17 = getelementptr inbounds nuw i8, ptr %1, i64 8
  %18 = tail call i32 @__archive_create_child(ptr noundef %2, ptr noundef nonnull %16, ptr noundef nonnull %17, ptr noundef nonnull %1) #11
  %.not = icmp eq i32 %18, 0
  br i1 %.not, label %22, label %19

19:                                               ; preds = %15
  %20 = getelementptr inbounds nuw i8, ptr %0, i64 8
  %21 = load ptr, ptr %20, align 8
  tail call void (ptr, i32, ptr, ...) @archive_set_error(ptr noundef %21, i32 noundef 22, ptr noundef nonnull @.str.3, ptr noundef %2) #11
  br label %22

22:                                               ; preds = %15, %19, %12
  %.0 = phi i32 [ -30, %12 ], [ -30, %19 ], [ 0, %15 ]
  ret i32 %.0
}